; Function Attrs: mustprogress uwtable
define hidden void @_ZN12opencv_caffe12LogParameter5ClearEv(ptr noundef nonnull align 8 dereferenceable(40) %0) unnamed_addr #3 align 2 {
  %2 = getelementptr inbounds nuw i8, ptr %0, i64 16
  %3 = load i32, ptr %2, align 8, !tbaa !71
  %4 = and i32 %3, 7
  %.not = icmp eq i32 %4, 0
  br i1 %.not, label %9, label %5

5:                                                ; preds = %1
  %6 = getelementptr inbounds nuw i8, ptr %0, i64 24
  store float 0.000000e+00, ptr %6, align 8, !tbaa !565
  %7 = getelementptr inbounds nuw i8, ptr %0, i64 28
  store float -1.000000e+00, ptr %7, align 4, !tbaa !567
  %8 = getelementptr inbounds nuw i8, ptr %0, i64 32
  store float 1.000000e+00, ptr %8, align 8, !tbaa !568
  br label %9

9:                                                ; preds = %5, %1
  store i32 0, ptr %2, align 8
  %10 = getelementptr inbounds nuw i8, ptr %0, i64 8
  %11 = load i64, ptr %10, align 8, !tbaa !8
  %12 = and i64 %11, 1
  %.not1 = icmp eq i64 %12, 0
  br i1 %.not1, label %_ZN6google8protobuf8internal16InternalMetadata5ClearINS0_15UnknownFieldSetEEEvv.exit, label %13

13:                                               ; preds = %9
  tail call void @_ZN6google8protobuf8internal16InternalMetadata7DoClearINS0_15UnknownFieldSetEEEvv(ptr noundef nonnull align 8 dereferenceable(8) %10)
  br label %_ZN6google8protobuf8internal16InternalMetadata5ClearINS0_15UnknownFieldSetEEEvv.exit

_ZN6google8protobuf8internal16InternalMetadata5ClearINS0_15UnknownFieldSetEEEvv.exit: ; preds = %9, %13
  ret void
}